; Function Attrs: nounwind uwtable
define ptr @BIO_new_fd(i32 noundef %0, i32 noundef %1) local_unnamed_addr #1 {
  %3 = tail call ptr @BIO_new(ptr noundef nonnull @methods_fdp) #9
  %4 = icmp eq ptr %3, null
  br i1 %4, label %8, label %5

5:                                                ; preds = %2
  %6 = sext i32 %1 to i64
  %7 = tail call i64 @BIO_int_ctrl(ptr noundef nonnull %3, i32 noundef 104, i64 noundef %6, i32 noundef %0) #9
  br label %8

8:                                                ; preds = %2, %5
  ret ptr %3
}